; Function Attrs: nounwind uwtable
define dso_local noundef zeroext i1 @listPublications(ptr noundef %0) local_unnamed_addr #0 {
  %2 = alloca %struct.PQExpBufferData, align 8
  %3 = alloca i32, align 4
  %4 = alloca %struct.PQExpBufferData, align 8
  %5 = alloca %struct.printQueryOpt, align 8
  %6 = alloca [32 x i8], align 16
  call void @llvm.lifetime.start.p0(i64 24, ptr nonnull %4) #8
  call void @llvm.lifetime.start.p0(i64 168, ptr nonnull %5) #8
  call void @llvm.memcpy.p0.p0.i64(ptr noundef nonnull align 8 dereferenceable(168) %5, ptr noundef nonnull align 8 dereferenceable(168) getelementptr inbounds nuw (i8, ptr @pset, i64 48), i64 168, i1 false)
  %7 = load i32, ptr getelementptr inbounds nuw (i8, ptr @pset, i64 332), align 4
  %8 = icmp slt i32 %7, 100000
  br i1 %8, label %9, label %11

9:                                                ; preds = %1
  call void @llvm.lifetime.start.p0(i64 32, ptr nonnull %6) #8
  %10 = call ptr @formatPGVersionNumber(i32 noundef %7, i1 noundef zeroext false, ptr noundef nonnull %6, i64 noundef 32) #8
  call void (i32, i32, ptr, ...) @pg_log_generic(i32 noundef 4, i32 noundef 0, ptr noundef nonnull @.str.506, ptr noundef %10) #8
  call void @llvm.lifetime.end.p0(i64 32, ptr nonnull %6) #8
  br label %35

11:                                               ; preds = %1
  call void @initPQExpBuffer(ptr noundef nonnull %4) #8
  call void (ptr, ptr, ...) @printfPQExpBuffer(ptr noundef nonnull %4, ptr noundef nonnull @.str.507, ptr noundef nonnull @.str.2, ptr noundef nonnull @.str.26, ptr noundef nonnull @.str.508, ptr noundef nonnull @.str.509, ptr noundef nonnull @.str.510, ptr noundef nonnull @.str.511) #8
  %12 = load i32, ptr getelementptr inbounds nuw (i8, ptr @pset, i64 332), align 4
  %13 = icmp sgt i32 %12, 109999
  br i1 %13, label %14, label %.thread7

14:                                               ; preds = %11
  call void (ptr, ptr, ...) @appendPQExpBuffer(ptr noundef nonnull %4, ptr noundef nonnull @.str.512, ptr noundef nonnull @.str.513) #8
  %.pr = load i32, ptr getelementptr inbounds nuw (i8, ptr @pset, i64 332), align 4
  %15 = icmp sgt i32 %.pr, 179999
  br i1 %15, label %16, label %17

16:                                               ; preds = %14
  call void (ptr, ptr, ...) @appendPQExpBuffer(ptr noundef nonnull %4, ptr noundef nonnull @.str.514, i32 noundef 110, i32 noundef 115, ptr noundef nonnull @.str.515) #8
  %.pr6 = load i32, ptr getelementptr inbounds nuw (i8, ptr @pset, i64 332), align 4
  br label %17

17:                                               ; preds = %16, %14
  %18 = phi i32 [ %.pr6, %16 ], [ %.pr, %14 ]
  %19 = icmp sgt i32 %18, 129999
  br i1 %19, label %20, label %.thread7

20:                                               ; preds = %17
  call void (ptr, ptr, ...) @appendPQExpBuffer(ptr noundef nonnull %4, ptr noundef nonnull @.str.516, ptr noundef nonnull @.str.517) #8
  br label %.thread7

.thread7:                                         ; preds = %11, %20, %17
  call void @appendPQExpBufferStr(ptr noundef nonnull %4, ptr noundef nonnull @.str.518) #8
  call void @llvm.lifetime.start.p0(i64 24, ptr nonnull %2) #8
  call void @llvm.lifetime.start.p0(i64 4, ptr nonnull %3) #8
  call void @initPQExpBuffer(ptr noundef nonnull %2) #8
  %21 = load ptr, ptr @pset, align 8
  %22 = call zeroext i1 @processSQLNamePattern(ptr noundef %21, ptr noundef nonnull %4, ptr noundef %0, i1 noundef zeroext false, i1 noundef zeroext false, ptr noundef null, ptr noundef nonnull @.str.519, ptr noundef null, ptr noundef null, ptr noundef nonnull %2, ptr noundef nonnull %3) #8
  %23 = load i32, ptr %3, align 4
  %.not19.i = icmp slt i32 %23, 1
  br i1 %.not19.i, label %25, label %24

24:                                               ; preds = %.thread7
  call void (i32, i32, ptr, ...) @pg_log_generic(i32 noundef 4, i32 noundef 0, ptr noundef nonnull @.str.912, ptr noundef %0) #8
  call void @termPQExpBuffer(ptr noundef nonnull %2) #8
  call void @llvm.lifetime.end.p0(i64 4, ptr nonnull %3) #8
  call void @llvm.lifetime.end.p0(i64 24, ptr nonnull %2) #8
  call void @termPQExpBuffer(ptr noundef nonnull %4) #8
  br label %35

25:                                               ; preds = %.thread7
  call void @termPQExpBuffer(ptr noundef nonnull %2) #8
  call void @llvm.lifetime.end.p0(i64 4, ptr nonnull %3) #8
  call void @llvm.lifetime.end.p0(i64 24, ptr nonnull %2) #8
  call void @appendPQExpBufferStr(ptr noundef nonnull %4, ptr noundef nonnull @.str.23) #8
  %26 = load ptr, ptr %4, align 8
  %27 = call ptr @PSQLexec(ptr noundef %26) #8
  call void @termPQExpBuffer(ptr noundef nonnull %4) #8
  %.not = icmp eq ptr %27, null
  br i1 %.not, label %35, label %28

28:                                               ; preds = %25
  %29 = getelementptr inbounds nuw i8, ptr %5, i64 128
  store ptr @.str.520, ptr %29, align 8
  %30 = getelementptr inbounds nuw i8, ptr %5, i64 144
  store i8 1, ptr %30, align 8
  %31 = getelementptr inbounds nuw i8, ptr %5, i64 152
  store ptr @listPublications.translate_columns, ptr %31, align 8
  %32 = getelementptr inbounds nuw i8, ptr %5, i64 160
  store i32 9, ptr %32, align 8
  %33 = load ptr, ptr getelementptr inbounds nuw (i8, ptr @pset, i64 16), align 8
  %34 = load ptr, ptr getelementptr inbounds nuw (i8, ptr @pset, i64 376), align 8
  call void @printQuery(ptr noundef nonnull %27, ptr noundef nonnull %5, ptr noundef %33, i1 noundef zeroext false, ptr noundef %34) #8
  call void @PQclear(ptr noundef nonnull %27) #8
  br label %35

35:                                               ; preds = %25, %28, %24, %9
  %.0 = phi i1 [ true, %9 ], [ true, %28 ], [ false, %24 ], [ false, %25 ]
  call void @llvm.lifetime.end.p0(i64 168, ptr nonnull %5) #8
  call void @llvm.lifetime.end.p0(i64 24, ptr nonnull %4) #8
  ret i1 %.0
}